; Function Attrs: nounwind uwtable
define ptr @l_Array_foldlMUnsafe_fold___at_Lake_Toml_mkSimpleTable_simpVal___spec__2(ptr noundef %0, ptr noundef readonly captures(none) %1, i64 noundef %2, i64 noundef %3, ptr noundef %4) local_unnamed_addr #2 {
  %.not83 = icmp eq i64 %2, %3
  br i1 %.not83, label %.._crit_edge_crit_edge, label %.lr.ph

.._crit_edge_crit_edge:                           ; preds = %5
  %.pre = ptrtoint ptr %0 to i64
  %.pre86 = and i64 %.pre, 1
  br label %._crit_edge

.lr.ph:                                           ; preds = %5
  %6 = getelementptr inbounds nuw i8, ptr %1, i64 24
  %7 = ptrtoint ptr %0 to i64
  %8 = and i64 %7, 1
  %.not82 = icmp eq i64 %8, 0
  br label %9

9:                                                ; preds = %.lr.ph, %lean_dec.exit40
  %.03285 = phi i64 [ %2, %.lr.ph ], [ %20, %lean_dec.exit40 ]
  %.03484 = phi ptr [ %4, %.lr.ph ], [ %.236, %lean_dec.exit40 ]
  %10 = getelementptr inbounds nuw [0 x ptr], ptr %6, i64 0, i64 %.03285
  %11 = load ptr, ptr %10, align 8, !tbaa !9
  %12 = ptrtoint ptr %11 to i64
  %13 = and i64 %12, 1
  %.not.i52 = icmp eq i64 %13, 0
  br i1 %.not.i52, label %14, label %lean_array_uget.exit

14:                                               ; preds = %9
  %.val.i.i = load i32, ptr %11, align 4, !tbaa !4
  %15 = icmp sgt i32 %.val.i.i, 0
  br i1 %15, label %16, label %18, !prof !11

16:                                               ; preds = %14
  %17 = add nuw i32 %.val.i.i, 1
  store i32 %17, ptr %11, align 4, !tbaa !4
  br label %lean_array_uget.exit

18:                                               ; preds = %14
  %.not.i.i = icmp eq i32 %.val.i.i, 0
  br i1 %.not.i.i, label %lean_array_uget.exit, label %19

19:                                               ; preds = %18
  tail call void @lean_inc_ref_cold(ptr noundef nonnull %11) #8
  br label %lean_array_uget.exit

lean_array_uget.exit:                             ; preds = %9, %16, %18, %19
  %20 = add i64 %.03285, 1
  %21 = getelementptr inbounds nuw i8, ptr %11, i64 8
  %22 = load ptr, ptr %21, align 8, !tbaa !9
  %23 = ptrtoint ptr %22 to i64
  %24 = and i64 %23, 1
  %.not76 = icmp eq i64 %24, 0
  br i1 %.not76, label %25, label %lean_inc.exit45

25:                                               ; preds = %lean_array_uget.exit
  %.val.i = load i32, ptr %22, align 4, !tbaa !4
  %26 = icmp sgt i32 %.val.i, 0
  br i1 %26, label %27, label %29, !prof !11

27:                                               ; preds = %25
  %28 = add nuw i32 %.val.i, 1
  store i32 %28, ptr %22, align 4, !tbaa !4
  br label %lean_inc.exit45

29:                                               ; preds = %25
  %.not.i53 = icmp eq i32 %.val.i, 0
  br i1 %.not.i53, label %lean_inc.exit45, label %30

30:                                               ; preds = %29
  tail call void @lean_inc_ref_cold(ptr noundef nonnull %22) #8
  br label %lean_inc.exit45

lean_inc.exit45:                                  ; preds = %30, %29, %27, %lean_array_uget.exit
  %31 = getelementptr inbounds nuw i8, ptr %11, i64 16
  %32 = load ptr, ptr %31, align 8, !tbaa !9
  %33 = ptrtoint ptr %32 to i64
  %34 = and i64 %33, 1
  %.not77 = icmp eq i64 %34, 0
  br i1 %.not77, label %35, label %lean_inc.exit44

35:                                               ; preds = %lean_inc.exit45
  %.val.i54 = load i32, ptr %32, align 4, !tbaa !4
  %36 = icmp sgt i32 %.val.i54, 0
  br i1 %36, label %37, label %39, !prof !11

37:                                               ; preds = %35
  %38 = add nuw i32 %.val.i54, 1
  store i32 %38, ptr %32, align 4, !tbaa !4
  br label %lean_inc.exit44

39:                                               ; preds = %35
  %.not.i55 = icmp eq i32 %.val.i54, 0
  br i1 %.not.i55, label %lean_inc.exit44, label %40

40:                                               ; preds = %39
  tail call void @lean_inc_ref_cold(ptr noundef nonnull %32) #8
  br label %lean_inc.exit44

lean_inc.exit44:                                  ; preds = %40, %39, %37, %lean_inc.exit45
  br i1 %.not.i52, label %41, label %lean_dec.exit41

41:                                               ; preds = %lean_inc.exit44
  %42 = load i32, ptr %11, align 4, !tbaa !4
  %43 = icmp sgt i32 %42, 1
  br i1 %43, label %44, label %46, !prof !11

44:                                               ; preds = %41
  %45 = add nsw i32 %42, -1
  store i32 %45, ptr %11, align 4, !tbaa !4
  br label %lean_dec.exit41

46:                                               ; preds = %41
  %.not.i = icmp eq i32 %42, 0
  br i1 %.not.i, label %lean_dec.exit41, label %47

47:                                               ; preds = %46
  tail call void @lean_dec_ref_cold(ptr noundef nonnull %11) #8
  br label %lean_dec.exit41

lean_dec.exit41:                                  ; preds = %47, %46, %44, %lean_inc.exit44
  %48 = tail call ptr @l_Lean_Name_components(ptr noundef %22) #8
  %49 = ptrtoint ptr %48 to i64
  %50 = and i64 %49, 1
  %.not.i57 = icmp eq i64 %50, 0
  br i1 %.not.i57, label %54, label %51

51:                                               ; preds = %lean_dec.exit41
  %52 = lshr i64 %49, 1
  %53 = trunc i64 %52 to i32
  br label %lean_obj_tag.exit

54:                                               ; preds = %lean_dec.exit41
  %55 = getelementptr i8, ptr %48, i64 4
  %.val.i58 = load i32, ptr %55, align 4
  %56 = lshr i32 %.val.i58, 24
  br label %lean_obj_tag.exit

lean_obj_tag.exit:                                ; preds = %51, %54
  %.0.i = phi i32 [ %53, %51 ], [ %56, %54 ]
  %57 = icmp eq i32 %.0.i, 0
  br i1 %57, label %58, label %66

58:                                               ; preds = %lean_obj_tag.exit
  br i1 %.not77, label %59, label %lean_dec.exit40

59:                                               ; preds = %58
  %60 = load i32, ptr %32, align 4, !tbaa !4
  %61 = icmp sgt i32 %60, 1
  br i1 %61, label %62, label %64, !prof !11

62:                                               ; preds = %59
  %63 = add nsw i32 %60, -1
  store i32 %63, ptr %32, align 4, !tbaa !4
  br label %lean_dec.exit40

64:                                               ; preds = %59
  %.not.i46 = icmp eq i32 %60, 0
  br i1 %.not.i46, label %lean_dec.exit40, label %65

65:                                               ; preds = %64
  tail call void @lean_dec_ref_cold(ptr noundef nonnull %32) #8
  br label %lean_dec.exit40

66:                                               ; preds = %lean_obj_tag.exit
  %67 = getelementptr inbounds nuw i8, ptr %48, i64 8
  %68 = load ptr, ptr %67, align 8, !tbaa !9
  %69 = ptrtoint ptr %68 to i64
  %70 = and i64 %69, 1
  %.not79 = icmp eq i64 %70, 0
  br i1 %.not79, label %71, label %lean_inc.exit43

71:                                               ; preds = %66
  %.val.i59 = load i32, ptr %68, align 4, !tbaa !4
  %72 = icmp sgt i32 %.val.i59, 0
  br i1 %72, label %73, label %75, !prof !11

73:                                               ; preds = %71
  %74 = add nuw i32 %.val.i59, 1
  store i32 %74, ptr %68, align 4, !tbaa !4
  br label %lean_inc.exit43

75:                                               ; preds = %71
  %.not.i60 = icmp eq i32 %.val.i59, 0
  br i1 %.not.i60, label %lean_inc.exit43, label %76

76:                                               ; preds = %75
  tail call void @lean_inc_ref_cold(ptr noundef nonnull %68) #8
  br label %lean_inc.exit43

lean_inc.exit43:                                  ; preds = %76, %75, %73, %66
  %77 = getelementptr inbounds nuw i8, ptr %48, i64 16
  %78 = load ptr, ptr %77, align 8, !tbaa !9
  %79 = ptrtoint ptr %78 to i64
  %80 = and i64 %79, 1
  %.not80 = icmp eq i64 %80, 0
  br i1 %.not80, label %81, label %lean_inc.exit42

81:                                               ; preds = %lean_inc.exit43
  %.val.i62 = load i32, ptr %78, align 4, !tbaa !4
  %82 = icmp sgt i32 %.val.i62, 0
  br i1 %82, label %83, label %85, !prof !11

83:                                               ; preds = %81
  %84 = add nuw i32 %.val.i62, 1
  store i32 %84, ptr %78, align 4, !tbaa !4
  br label %lean_inc.exit42

85:                                               ; preds = %81
  %.not.i63 = icmp eq i32 %.val.i62, 0
  br i1 %.not.i63, label %lean_inc.exit42, label %86

86:                                               ; preds = %85
  tail call void @lean_inc_ref_cold(ptr noundef nonnull %78) #8
  br label %lean_inc.exit42

lean_inc.exit42:                                  ; preds = %86, %85, %83, %lean_inc.exit43
  br i1 %.not.i57, label %87, label %lean_dec.exit39

87:                                               ; preds = %lean_inc.exit42
  %88 = load i32, ptr %48, align 4, !tbaa !4
  %89 = icmp sgt i32 %88, 1
  br i1 %89, label %90, label %92, !prof !11

90:                                               ; preds = %87
  %91 = add nsw i32 %88, -1
  store i32 %91, ptr %48, align 4, !tbaa !4
  br label %lean_dec.exit39

92:                                               ; preds = %87
  %.not.i48 = icmp eq i32 %88, 0
  br i1 %.not.i48, label %lean_dec.exit39, label %93

93:                                               ; preds = %92
  tail call void @lean_dec_ref_cold(ptr noundef nonnull %48) #8
  br label %lean_dec.exit39

lean_dec.exit39:                                  ; preds = %93, %92, %90, %lean_inc.exit42
  br i1 %.not82, label %94, label %lean_inc.exit

94:                                               ; preds = %lean_dec.exit39
  %.val.i65 = load i32, ptr %0, align 4, !tbaa !4
  %95 = icmp sgt i32 %.val.i65, 0
  br i1 %95, label %96, label %98, !prof !11

96:                                               ; preds = %94
  %97 = add nuw i32 %.val.i65, 1
  store i32 %97, ptr %0, align 4, !tbaa !4
  br label %lean_inc.exit

98:                                               ; preds = %94
  %.not.i66 = icmp eq i32 %.val.i65, 0
  br i1 %.not.i66, label %lean_inc.exit, label %99

99:                                               ; preds = %98
  tail call void @lean_inc_ref_cold(ptr noundef nonnull %0) #8
  br label %lean_inc.exit

lean_inc.exit:                                    ; preds = %99, %98, %96, %lean_dec.exit39
  %100 = tail call ptr @l_Lake_Toml_mkSimpleTable_insert(ptr noundef %.03484, ptr noundef %0, ptr noundef %68, ptr noundef %78, ptr noundef %32)
  br label %lean_dec.exit40

._crit_edge:                                      ; preds = %lean_dec.exit40, %.._crit_edge_crit_edge
  %.pre-phi87 = phi i64 [ %.pre86, %.._crit_edge_crit_edge ], [ %8, %lean_dec.exit40 ]
  %.034.lcssa = phi ptr [ %4, %.._crit_edge_crit_edge ], [ %.236, %lean_dec.exit40 ]
  %.not75 = icmp eq i64 %.pre-phi87, 0
  br i1 %.not75, label %101, label %108

101:                                              ; preds = %._crit_edge
  %102 = load i32, ptr %0, align 4, !tbaa !4
  %103 = icmp sgt i32 %102, 1
  br i1 %103, label %104, label %106, !prof !11

104:                                              ; preds = %101
  %105 = add nsw i32 %102, -1
  store i32 %105, ptr %0, align 4, !tbaa !4
  br label %108

106:                                              ; preds = %101
  %.not.i50 = icmp eq i32 %102, 0
  br i1 %.not.i50, label %108, label %107

107:                                              ; preds = %106
  tail call void @lean_dec_ref_cold(ptr noundef nonnull %0) #8
  br label %108

lean_dec.exit40:                                  ; preds = %58, %62, %64, %65, %lean_inc.exit
  %.236 = phi ptr [ %100, %lean_inc.exit ], [ %.03484, %65 ], [ %.03484, %64 ], [ %.03484, %62 ], [ %.03484, %58 ]
  %.not = icmp eq i64 %20, %3
  br i1 %.not, label %._crit_edge, label %9

108:                                              ; preds = %107, %106, %104, %._crit_edge
  ret ptr %.034.lcssa
}